target datalayout = "e-m:e-p270:32:32-p271:32:32-p272:64:64-i64:64-i128:128-f80:128-n8:16:32:64-S128"
target triple = "x86_64-pc-linux-gnu"

%struct.H5O_link_t = type { i32, i8, i64, i32, ptr, %union.anon }
%union.anon = type { %struct.H5O_link_ud_t }
%struct.H5O_link_ud_t = type { ptr, i64 }
%struct.H5O_link_soft_t = type { ptr }

; Function Attrs: nounwind uwtable
define internal i32 @H5O__link_reset(ptr noundef %0) #0 {
  %2 = alloca ptr, align 8
  %3 = alloca ptr, align 8
  store ptr %0, ptr %2, align 8
  %4 = load ptr, ptr %2, align 8
  store ptr %4, ptr %3, align 8
  %5 = load ptr, ptr %3, align 8
  %6 = icmp ne ptr %5, null
  br i1 %6, label %7, label %50

7:                                                ; preds = %1
  %8 = load ptr, ptr %3, align 8
  %9 = getelementptr inbounds %struct.H5O_link_t, ptr %8, i32 0, i32 0
  %10 = load i32, ptr %9, align 8
  %11 = icmp eq i32 %10, 1
  br i1 %11, label %12, label %21

12:                                               ; preds = %7
  %13 = load ptr, ptr %3, align 8
  %14 = getelementptr inbounds %struct.H5O_link_t, ptr %13, i32 0, i32 5
  %15 = getelementptr inbounds %struct.H5O_link_soft_t, ptr %14, i32 0, i32 0
  %16 = load ptr, ptr %15, align 8
  %17 = call ptr @H5MM_xfree(ptr noundef %16)
  %18 = load ptr, ptr %3, align 8
  %19 = getelementptr inbounds %struct.H5O_link_t, ptr %18, i32 0, i32 5
  %20 = getelementptr inbounds %struct.H5O_link_soft_t, ptr %19, i32 0, i32 0
  store ptr %17, ptr %20, align 8
  br label %43

21:                                               ; preds = %7
  %22 = load ptr, ptr %3, align 8
  %23 = getelementptr inbounds %struct.H5O_link_t, ptr %22, i32 0, i32 0
  %24 = load i32, ptr %23, align 8
  %25 = icmp sge i32 %24, 64
  br i1 %25, label %26, label %42

26:                                               ; preds = %21
  %27 = load ptr, ptr %3, align 8
  %28 = getelementptr inbounds %struct.H5O_link_t, ptr %27, i32 0, i32 5
  %29 = getelementptr inbounds %struct.H5O_link_ud_t, ptr %28, i32 0, i32 1
  %30 = load i64, ptr %29, align 8
  %31 = icmp ugt i64 %30, 0
  br i1 %31, label %32, label %41

32:                                               ; preds = %26
  %33 = load ptr, ptr %3, align 8
  %34 = getelementptr inbounds %struct.H5O_link_t, ptr %33, i32 0, i32 5
  %35 = getelementptr inbounds %struct.H5O_link_ud_t, ptr %34, i32 0, i32 0
  %36 = load ptr, ptr %35, align 8
  %37 = call ptr @H5MM_xfree(ptr noundef %36)
  %38 = load ptr, ptr %3, align 8
  %39 = getelementptr inbounds %struct.H5O_link_t, ptr %38, i32 0, i32 5
  %40 = getelementptr inbounds %struct.H5O_link_ud_t, ptr %39, i32 0, i32 0
  store ptr %37, ptr %40, align 8
  br label %41

41:                                               ; preds = %32, %26
  br label %42

42:                                               ; preds = %41, %21
  br label %43

43:                                               ; preds = %42, %12
  %44 = load ptr, ptr %3, align 8
  %45 = getelementptr inbounds %struct.H5O_link_t, ptr %44, i32 0, i32 4
  %46 = load ptr, ptr %45, align 8
  %47 = call ptr @H5MM_xfree(ptr noundef %46)
  %48 = load ptr, ptr %3, align 8
  %49 = getelementptr inbounds %struct.H5O_link_t, ptr %48, i32 0, i32 4
  store ptr %47, ptr %49, align 8
  br label %50

50:                                               ; preds = %43, %1
  ret i32 0
}