; Function Attrs: nounwind uwtable
define internal noundef i32 @H5O__link_reset(ptr noundef %0) #0 {
  %.not = icmp eq ptr %0, null
  br i1 %.not, label %17, label %2

2:                                                ; preds = %1
  %3 = load i32, ptr %0, align 8
  %4 = icmp eq i32 %3, 1
  br i1 %4, label %.sink.split, label %5

5:                                                ; preds = %2
  %6 = icmp sgt i32 %3, 63
  br i1 %6, label %7, label %13

7:                                                ; preds = %5
  %8 = getelementptr inbounds i8, ptr %0, i64 40
  %9 = load i64, ptr %8, align 8
  %.not12 = icmp eq i64 %9, 0
  br i1 %.not12, label %13, label %.sink.split

.sink.split:                                      ; preds = %7, %2
  %10 = getelementptr inbounds i8, ptr %0, i64 32
  %11 = load ptr, ptr %10, align 8
  %12 = tail call ptr @H5MM_xfree(ptr noundef %11) #7
  store ptr %12, ptr %10, align 8
  br label %13

13:                                               ; preds = %.sink.split, %5, %7
  %14 = getelementptr inbounds i8, ptr %0, i64 24
  %15 = load ptr, ptr %14, align 8
  %16 = tail call ptr @H5MM_xfree(ptr noundef %15) #7
  store ptr %16, ptr %14, align 8
  br label %17

17:                                               ; preds = %13, %1
  ret i32 0
}